; Function Attrs: mustprogress nounwind uwtable
define hidden void @_ZN24ShenandoahEvacOOMHandlerC2Ev(ptr nocapture noundef nonnull align 8 dereferenceable(80) %0) unnamed_addr #1 align 2 {
  %2 = tail call noundef i32 @_ZN2os22active_processor_countEv() #8
  %3 = tail call noundef i32 @llvm.smin.i32(i32 %2, i32 128)
  %4 = tail call noundef i32 @llvm.smax.i32(i32 %3, i32 1)
  %5 = add nuw i32 %4, 2147483647
  %6 = and i32 %5, %4
  %7 = icmp eq i32 %6, 0
  %8 = tail call range(i32 0, 33) i32 @llvm.ctlz.i32(i32 %4, i1 true)
  %9 = sub nuw nsw i32 32, %8
  %10 = shl nuw nsw i32 1, %9
  %.0.i.i = select i1 %7, i32 %4, i32 %10
  store i32 %.0.i.i, ptr %0, align 8
  %11 = zext nneg i32 %.0.i.i to i64
  %12 = shl nuw nsw i64 %11, 6
  %13 = tail call noundef ptr @_Z12AllocateHeapm8MEMFLAGSN17AllocFailStrategy13AllocFailEnumE(i64 noundef %12, i8 noundef zeroext 5, i32 noundef 0) #8
  %14 = getelementptr inbounds i8, ptr %0, i64 72
  store ptr %13, ptr %14, align 8
  %15 = load i32, ptr %0, align 8
  %16 = icmp sgt i32 %15, 0
  br i1 %16, label %.lr.ph, label %._crit_edge

.lr.ph:                                           ; preds = %1, %.lr.ph
  %indvars.iv = phi i64 [ %indvars.iv.next, %.lr.ph ], [ 0, %1 ]
  %17 = load ptr, ptr %14, align 8
  %18 = getelementptr inbounds %class.ShenandoahEvacOOMCounter, ptr %17, i64 %indvars.iv
  store volatile i32 0, ptr %18, align 4
  %indvars.iv.next = add nuw nsw i64 %indvars.iv, 1
  %19 = load i32, ptr %0, align 8
  %20 = sext i32 %19 to i64
  %21 = icmp slt i64 %indvars.iv.next, %20
  br i1 %21, label %.lr.ph, label %._crit_edge, !llvm.loop !13

._crit_edge:                                      ; preds = %.lr.ph, %1
  ret void
}